target datalayout = "e-m:e-p270:32:32-p271:32:32-p272:64:64-i64:64-i128:128-f80:128-n8:16:32:64-S128"
target triple = "x86_64-pc-linux-gnu"

%struct.BF_ctx = type { [4 x [256 x i32]], [18 x i32] }

; Function Attrs: nounwind uwtable
define internal void @BF_set_key(ptr noundef %0, ptr noundef %1, ptr noundef %2, i8 noundef zeroext %3) #0 {
  %5 = alloca ptr, align 8
  %6 = alloca ptr, align 8
  %7 = alloca ptr, align 8
  %8 = alloca i8, align 1
  %9 = alloca ptr, align 8
  %10 = alloca i32, align 4
  %11 = alloca i32, align 4
  %12 = alloca i32, align 4
  %13 = alloca i32, align 4
  %14 = alloca i32, align 4
  %15 = alloca i32, align 4
  %16 = alloca [2 x i32], align 4
  store ptr %0, ptr %5, align 8
  store ptr %1, ptr %6, align 8
  store ptr %2, ptr %7, align 8
  store i8 %3, ptr %8, align 1
  %17 = load ptr, ptr %5, align 8
  store ptr %17, ptr %9, align 8
  %18 = load i8, ptr %8, align 1
  %19 = zext i8 %18 to i32
  %20 = and i32 %19, 1
  store i32 %20, ptr %10, align 4
  %21 = load i8, ptr %8, align 1
  %22 = zext i8 %21 to i32
  %23 = and i32 %22, 2
  %24 = shl i32 %23, 15
  store i32 %24, ptr %13, align 4
  store i32 0, ptr %15, align 4
  store i32 0, ptr %14, align 4
  store i32 0, ptr %11, align 4
  br label %25

25:                                               ; preds = %103, %4
  %26 = load i32, ptr %11, align 4
  %27 = icmp ult i32 %26, 18
  br i1 %27, label %28, label %106

28:                                               ; preds = %25
  %29 = getelementptr inbounds [2 x i32], ptr %16, i64 0, i64 1
  store i32 0, ptr %29, align 4
  %30 = getelementptr inbounds [2 x i32], ptr %16, i64 0, i64 0
  store i32 0, ptr %30, align 4
  store i32 0, ptr %12, align 4
  br label %31

31:                                               ; preds = %71, %28
  %32 = load i32, ptr %12, align 4
  %33 = icmp ult i32 %32, 4
  br i1 %33, label %34, label %74

34:                                               ; preds = %31
  %35 = getelementptr inbounds [2 x i32], ptr %16, i64 0, i64 0
  %36 = load i32, ptr %35, align 4
  %37 = shl i32 %36, 8
  store i32 %37, ptr %35, align 4
  %38 = load ptr, ptr %9, align 8
  %39 = load i8, ptr %38, align 1
  %40 = zext i8 %39 to i32
  %41 = getelementptr inbounds [2 x i32], ptr %16, i64 0, i64 0
  %42 = load i32, ptr %41, align 4
  %43 = or i32 %42, %40
  store i32 %43, ptr %41, align 4
  %44 = getelementptr inbounds [2 x i32], ptr %16, i64 0, i64 1
  %45 = load i32, ptr %44, align 4
  %46 = shl i32 %45, 8
  store i32 %46, ptr %44, align 4
  %47 = load ptr, ptr %9, align 8
  %48 = load i8, ptr %47, align 1
  %49 = sext i8 %48 to i32
  %50 = getelementptr inbounds [2 x i32], ptr %16, i64 0, i64 1
  %51 = load i32, ptr %50, align 4
  %52 = or i32 %51, %49
  store i32 %52, ptr %50, align 4
  %53 = load i32, ptr %12, align 4
  %54 = icmp ne i32 %53, 0
  br i1 %54, label %55, label %61

55:                                               ; preds = %34
  %56 = getelementptr inbounds [2 x i32], ptr %16, i64 0, i64 1
  %57 = load i32, ptr %56, align 4
  %58 = and i32 %57, 128
  %59 = load i32, ptr %14, align 4
  %60 = or i32 %59, %58
  store i32 %60, ptr %14, align 4
  br label %61

61:                                               ; preds = %55, %34
  %62 = load ptr, ptr %9, align 8
  %63 = load i8, ptr %62, align 1
  %64 = icmp ne i8 %63, 0
  br i1 %64, label %67, label %65

65:                                               ; preds = %61
  %66 = load ptr, ptr %5, align 8
  store ptr %66, ptr %9, align 8
  br label %70

67:                                               ; preds = %61
  %68 = load ptr, ptr %9, align 8
  %69 = getelementptr inbounds i8, ptr %68, i32 1
  store ptr %69, ptr %9, align 8
  br label %70

70:                                               ; preds = %67, %65
  br label %71

71:                                               ; preds = %70
  %72 = load i32, ptr %12, align 4
  %73 = add i32 %72, 1
  store i32 %73, ptr %12, align 4
  br label %31

74:                                               ; preds = %31
  %75 = getelementptr inbounds [2 x i32], ptr %16, i64 0, i64 0
  %76 = load i32, ptr %75, align 4
  %77 = getelementptr inbounds [2 x i32], ptr %16, i64 0, i64 1
  %78 = load i32, ptr %77, align 4
  %79 = xor i32 %76, %78
  %80 = load i32, ptr %15, align 4
  %81 = or i32 %80, %79
  store i32 %81, ptr %15, align 4
  %82 = load i32, ptr %10, align 4
  %83 = zext i32 %82 to i64
  %84 = getelementptr inbounds [2 x i32], ptr %16, i64 0, i64 %83
  %85 = load i32, ptr %84, align 4
  %86 = load ptr, ptr %6, align 8
  %87 = load i32, ptr %11, align 4
  %88 = zext i32 %87 to i64
  %89 = getelementptr inbounds i32, ptr %86, i64 %88
  store i32 %85, ptr %89, align 4
  %90 = load i32, ptr %11, align 4
  %91 = zext i32 %90 to i64
  %92 = getelementptr inbounds [18 x i32], ptr getelementptr inbounds (%struct.BF_ctx, ptr @BF_init_state, i32 0, i32 1), i64 0, i64 %91
  %93 = load i32, ptr %92, align 4
  %94 = load i32, ptr %10, align 4
  %95 = zext i32 %94 to i64
  %96 = getelementptr inbounds [2 x i32], ptr %16, i64 0, i64 %95
  %97 = load i32, ptr %96, align 4
  %98 = xor i32 %93, %97
  %99 = load ptr, ptr %7, align 8
  %100 = load i32, ptr %11, align 4
  %101 = zext i32 %100 to i64
  %102 = getelementptr inbounds i32, ptr %99, i64 %101
  store i32 %98, ptr %102, align 4
  br label %103

103:                                              ; preds = %74
  %104 = load i32, ptr %11, align 4
  %105 = add i32 %104, 1
  store i32 %105, ptr %11, align 4
  br label %25

106:                                              ; preds = %25
  %107 = load i32, ptr %15, align 4
  %108 = lshr i32 %107, 16
  %109 = load i32, ptr %15, align 4
  %110 = or i32 %109, %108
  store i32 %110, ptr %15, align 4
  %111 = load i32, ptr %15, align 4
  %112 = and i32 %111, 65535
  store i32 %112, ptr %15, align 4
  %113 = load i32, ptr %15, align 4
  %114 = add i32 %113, 65535
  store i32 %114, ptr %15, align 4
  %115 = load i32, ptr %14, align 4
  %116 = shl i32 %115, 9
  store i32 %116, ptr %14, align 4
  %117 = load i32, ptr %15, align 4
  %118 = xor i32 %117, -1
  %119 = load i32, ptr %13, align 4
  %120 = and i32 %118, %119
  %121 = load i32, ptr %14, align 4
  %122 = and i32 %121, %120
  store i32 %122, ptr %14, align 4
  %123 = load i32, ptr %14, align 4
  %124 = load ptr, ptr %7, align 8
  %125 = getelementptr inbounds i32, ptr %124, i64 0
  %126 = load i32, ptr %125, align 4
  %127 = xor i32 %126, %123
  store i32 %127, ptr %125, align 4
  ret void
}