; Function Attrs: nofree norecurse nosync nounwind memory(read, argmem: readwrite, inaccessiblemem: none) uwtable
define internal fastcc void @BF_set_key(ptr nocapture noundef readonly %0, ptr nocapture noundef writeonly %1, ptr nocapture noundef %2, i8 noundef zeroext %3) unnamed_addr #5 {
  %5 = alloca [2 x i32], align 4
  %6 = zext i8 %3 to i32
  %7 = and i32 %6, 1
  %8 = getelementptr inbounds i8, ptr %5, i64 4
  %9 = zext nneg i32 %7 to i64
  %10 = getelementptr inbounds [2 x i32], ptr %5, i64 0, i64 %9
  br label %11

11:                                               ; preds = %4, %28
  %indvars.iv = phi i64 [ 0, %4 ], [ %indvars.iv.next, %28 ]
  %.045 = phi i32 [ 0, %4 ], [ %30, %28 ]
  %.03144 = phi i32 [ 0, %4 ], [ %.2, %28 ]
  %.03243 = phi ptr [ %0, %4 ], [ %.234, %28 ]
  store i32 0, ptr %8, align 4
  br label %12

12:                                               ; preds = %11, %12
  %.141 = phi i32 [ %.03144, %11 ], [ %.2, %12 ]
  %.13340 = phi ptr [ %.03243, %11 ], [ %.234, %12 ]
  %.03539 = phi i32 [ 0, %11 ], [ %27, %12 ]
  %13 = phi i32 [ 0, %11 ], [ %18, %12 ]
  %14 = phi i32 [ 0, %11 ], [ %22, %12 ]
  %15 = shl i32 %13, 8
  store i32 %15, ptr %5, align 4
  %16 = load i8, ptr %.13340, align 1
  %17 = zext i8 %16 to i32
  %18 = or disjoint i32 %15, %17
  store i32 %18, ptr %5, align 4
  %19 = shl i32 %14, 8
  store i32 %19, ptr %8, align 4
  %20 = load i8, ptr %.13340, align 1
  %21 = sext i8 %20 to i32
  %22 = or i32 %19, %21
  store i32 %22, ptr %8, align 4
  %.not = icmp eq i32 %.03539, 0
  %23 = and i32 %21, 128
  %24 = select i1 %.not, i32 0, i32 %23
  %.2 = or i32 %24, %.141
  %25 = load i8, ptr %.13340, align 1
  %.not37 = icmp eq i8 %25, 0
  %26 = getelementptr inbounds i8, ptr %.13340, i64 1
  %.234 = select i1 %.not37, ptr %0, ptr %26
  %27 = add nuw nsw i32 %.03539, 1
  %exitcond.not = icmp eq i32 %27, 4
  br i1 %exitcond.not, label %28, label %12

28:                                               ; preds = %12
  %29 = xor i32 %22, %18
  %30 = or i32 %29, %.045
  %31 = load i32, ptr %10, align 4
  %32 = getelementptr inbounds i32, ptr %1, i64 %indvars.iv
  store i32 %31, ptr %32, align 4
  %33 = getelementptr inbounds %struct.BF_ctx, ptr @BF_init_state, i64 0, i32 1, i64 %indvars.iv
  %34 = load i32, ptr %33, align 4
  %35 = xor i32 %34, %31
  %36 = getelementptr inbounds i32, ptr %2, i64 %indvars.iv
  store i32 %35, ptr %36, align 4
  %indvars.iv.next = add nuw nsw i64 %indvars.iv, 1
  %exitcond47.not = icmp eq i64 %indvars.iv.next, 18
  br i1 %exitcond47.not, label %37, label %11

37:                                               ; preds = %28
  %38 = shl nuw nsw i32 %6, 15
  %39 = and i32 %38, 65536
  %40 = lshr i32 %30, 16
  %.0.masked = and i32 %30, 65535
  %41 = or i32 %.0.masked, %40
  %42 = shl nuw nsw i32 %.2, 9
  %43 = sub nuw nsw i32 65536, %41
  %44 = and i32 %39, %42
  %45 = and i32 %44, %43
  %46 = load i32, ptr %2, align 4
  %47 = xor i32 %46, %45
  store i32 %47, ptr %2, align 4
  ret void
}